; Function Attrs: mustprogress uwtable
define internal void @"_ZN4LuauL8fnVisitVIZNS_16toStringDetailedEPKNS_11TypePackVarERNS_15ToStringOptionsEE3$_1KNS_9Unifiable5ErrorIS3_EEEEvRT_PNSt11conditionalIXsr3stdE10is_const_vIT0_EEKvvE4typeE"(ptr noundef nonnull readonly align 8 captures(none) dereferenceable(16) %0, ptr noundef readonly captures(none) %1) #6 {
  %3 = alloca %"struct.Luau::Unifiable::Error", align 8
  call void @llvm.lifetime.start.p0(i64 24, ptr nonnull %3)
  call void @llvm.memcpy.p0.p0.i64(ptr noundef nonnull align 8 dereferenceable(24) %3, ptr noundef nonnull align 8 dereferenceable(24) %1, i64 24, i1 false)
  %.val = load ptr, ptr %0, align 8, !tbaa !711
  %4 = getelementptr inbounds nuw i8, ptr %0, i64 8
  %.val2 = load ptr, ptr %4, align 8, !tbaa !253
  call void @_ZN4Luau19TypePackStringifierclEPKNS_11TypePackVarERKNS_9Unifiable5ErrorIS3_EE(ptr noundef nonnull align 8 dereferenceable(36) %.val, ptr noundef %.val2, ptr noundef nonnull align 8 dereferenceable(24) %3)
  call void @llvm.lifetime.end.p0(i64 24, ptr nonnull %3)
  ret void
}